target datalayout = "e-m:e-p270:32:32-p271:32:32-p272:64:64-i64:64-i128:128-f80:128-n8:16:32:64-S128"
target triple = "x86_64-pc-linux-gnu"

%struct._e_guid_t = type { i32, i16, i16, [8 x i8] }
%struct._dcerpc_info = type { ptr, i32, i64, i8, i8, i8, i32, i32, i32, i32, i32, i32, i32, i32, ptr, ptr, ptr, ptr, %struct.anon }
%struct.anon = type { i8, ptr, ptr, ptr, i8 }
%struct.nstime_t = type { i64, i32 }
%struct._dcerpc_call_value = type { %struct._e_guid_t, i16, %struct._e_guid_t, i16, i32, %struct.nstime_t, i32, i32, ptr, ptr, ptr, i32 }

@hf_dcerpc_ndr_padding = external global i32, align 4

; Function Attrs: null_pointer_is_valid sspstrong uwtable
define i32 @dissect_ndr_uint32(ptr noundef %0, i32 noundef %1, ptr noundef %2, ptr noundef %3, ptr noundef %4, ptr noundef %5, i32 noundef %6, ptr noundef %7) #0 {
  %9 = alloca i32, align 4
  %10 = alloca ptr, align 8
  %11 = alloca i32, align 4
  %12 = alloca ptr, align 8
  %13 = alloca ptr, align 8
  %14 = alloca ptr, align 8
  %15 = alloca ptr, align 8
  %16 = alloca i32, align 4
  %17 = alloca ptr, align 8
  store ptr %0, ptr %10, align 8
  store i32 %1, ptr %11, align 4
  store ptr %2, ptr %12, align 8
  store ptr %3, ptr %13, align 8
  store ptr %4, ptr %14, align 8
  store ptr %5, ptr %15, align 8
  store i32 %6, ptr %16, align 4
  store ptr %7, ptr %17, align 8
  %18 = load ptr, ptr %17, align 8
  %19 = icmp ne ptr %18, null
  br i1 %19, label %20, label %22

20:                                               ; preds = %8
  %21 = load ptr, ptr %17, align 8
  store i32 0, ptr %21, align 4
  br label %22

22:                                               ; preds = %20, %8
  %23 = load ptr, ptr %14, align 8
  %24 = icmp ne ptr %23, null
  br i1 %24, label %25, label %32

25:                                               ; preds = %22
  %26 = load ptr, ptr %14, align 8
  %27 = getelementptr inbounds nuw %struct._dcerpc_info, ptr %26, i32 0, i32 4
  %28 = load i8, ptr %27, align 1, !range !6, !noundef !7
  %29 = trunc i8 %28 to i1
  br i1 %29, label %30, label %32

30:                                               ; preds = %25
  %31 = load i32, ptr %11, align 4
  store i32 %31, ptr %9, align 4
  br label %59

32:                                               ; preds = %25, %22
  %33 = load ptr, ptr %14, align 8
  %34 = icmp ne ptr %33, null
  br i1 %34, label %35, label %50

35:                                               ; preds = %32
  %36 = load ptr, ptr %14, align 8
  %37 = getelementptr inbounds nuw %struct._dcerpc_info, ptr %36, i32 0, i32 5
  %38 = load i8, ptr %37, align 2, !range !6, !noundef !7
  %39 = trunc i8 %38 to i1
  br i1 %39, label %50, label %40

40:                                               ; preds = %35
  %41 = load i32, ptr %11, align 4
  %42 = srem i32 %41, 4
  %43 = icmp ne i32 %42, 0
  br i1 %43, label %44, label %50

44:                                               ; preds = %40
  %45 = load i32, ptr %11, align 4
  %46 = srem i32 %45, 4
  %47 = sub i32 4, %46
  %48 = load i32, ptr %11, align 4
  %49 = add i32 %48, %47
  store i32 %49, ptr %11, align 4
  br label %50

50:                                               ; preds = %44, %40, %35, %32
  %51 = load ptr, ptr %10, align 8
  %52 = load i32, ptr %11, align 4
  %53 = load ptr, ptr %12, align 8
  %54 = load ptr, ptr %13, align 8
  %55 = load ptr, ptr %15, align 8
  %56 = load i32, ptr %16, align 4
  %57 = load ptr, ptr %17, align 8
  %58 = call i32 @dissect_dcerpc_uint32(ptr noundef %51, i32 noundef %52, ptr noundef %53, ptr noundef %54, ptr noundef %55, i32 noundef %56, ptr noundef %57)
  store i32 %58, ptr %9, align 4
  br label %59

59:                                               ; preds = %50, %30
  %60 = load i32, ptr %9, align 4
  ret i32 %60
}

; Function Attrs: null_pointer_is_valid sspstrong uwtable
define i32 @dissect_ndr_uint64(ptr noundef %0, i32 noundef %1, ptr noundef %2, ptr noundef %3, ptr noundef %4, ptr noundef %5, i32 noundef %6, ptr noundef %7) #0 {
  %9 = alloca i32, align 4
  %10 = alloca ptr, align 8
  %11 = alloca i32, align 4
  %12 = alloca ptr, align 8
  %13 = alloca ptr, align 8
  %14 = alloca ptr, align 8
  %15 = alloca ptr, align 8
  %16 = alloca i32, align 4
  %17 = alloca ptr, align 8
  %18 = alloca i32, align 4
  store ptr %0, ptr %10, align 8
  store i32 %1, ptr %11, align 4
  store ptr %2, ptr %12, align 8
  store ptr %3, ptr %13, align 8
  store ptr %4, ptr %14, align 8
  store ptr %5, ptr %15, align 8
  store i32 %6, ptr %16, align 4
  store ptr %7, ptr %17, align 8
  %19 = load ptr, ptr %17, align 8
  %20 = icmp ne ptr %19, null
  br i1 %20, label %21, label %23

21:                                               ; preds = %8
  %22 = load ptr, ptr %17, align 8
  store i64 0, ptr %22, align 8
  br label %23

23:                                               ; preds = %21, %8
  %24 = load ptr, ptr %14, align 8
  %25 = getelementptr inbounds nuw %struct._dcerpc_info, ptr %24, i32 0, i32 4
  %26 = load i8, ptr %25, align 1, !range !6, !noundef !7
  %27 = trunc i8 %26 to i1
  br i1 %27, label %28, label %30

28:                                               ; preds = %23
  %29 = load i32, ptr %11, align 4
  store i32 %29, ptr %9, align 4
  br label %62

30:                                               ; preds = %23
  %31 = load ptr, ptr %14, align 8
  %32 = getelementptr inbounds nuw %struct._dcerpc_info, ptr %31, i32 0, i32 5
  %33 = load i8, ptr %32, align 2, !range !6, !noundef !7
  %34 = trunc i8 %33 to i1
  br i1 %34, label %52, label %35

35:                                               ; preds = %30
  %36 = load i32, ptr %11, align 4
  %37 = srem i32 %36, 8
  %38 = icmp ne i32 %37, 0
  br i1 %38, label %39, label %52

39:                                               ; preds = %35
  call void @llvm.lifetime.start.p0(i64 4, ptr %18) #9
  %40 = load i32, ptr %11, align 4
  %41 = srem i32 %40, 8
  %42 = sub i32 8, %41
  store i32 %42, ptr %18, align 4
  %43 = load ptr, ptr %13, align 8
  %44 = load i32, ptr @hf_dcerpc_ndr_padding, align 4
  %45 = load ptr, ptr %10, align 8
  %46 = load i32, ptr %11, align 4
  %47 = load i32, ptr %18, align 4
  %48 = call ptr @proto_tree_add_item(ptr noundef %43, i32 noundef %44, ptr noundef %45, i32 noundef %46, i32 noundef %47, i32 noundef 0)
  %49 = load i32, ptr %18, align 4
  %50 = load i32, ptr %11, align 4
  %51 = add i32 %50, %49
  store i32 %51, ptr %11, align 4
  call void @llvm.lifetime.end.p0(i64 4, ptr %18) #9
  br label %52

52:                                               ; preds = %39, %35, %30
  %53 = load ptr, ptr %10, align 8
  %54 = load i32, ptr %11, align 4
  %55 = load ptr, ptr %12, align 8
  %56 = load ptr, ptr %13, align 8
  %57 = load ptr, ptr %14, align 8
  %58 = load ptr, ptr %15, align 8
  %59 = load i32, ptr %16, align 4
  %60 = load ptr, ptr %17, align 8
  %61 = call i32 @dissect_dcerpc_uint64(ptr noundef %53, i32 noundef %54, ptr noundef %55, ptr noundef %56, ptr noundef %57, ptr noundef %58, i32 noundef %59, ptr noundef %60)
  store i32 %61, ptr %9, align 4
  br label %62

62:                                               ; preds = %52, %28
  %63 = load i32, ptr %9, align 4
  ret i32 %63
}

; Function Attrs: null_pointer_is_valid sspstrong uwtable
define i32 @dissect_ndr_uint3264(ptr noundef %0, i32 noundef %1, ptr noundef %2, ptr noundef %3, ptr noundef %4, ptr noundef %5, i32 noundef %6, ptr noundef %7) #0 {
  %9 = alloca i32, align 4
  %10 = alloca ptr, align 8
  %11 = alloca i32, align 4
  %12 = alloca ptr, align 8
  %13 = alloca ptr, align 8
  %14 = alloca ptr, align 8
  %15 = alloca ptr, align 8
  %16 = alloca i32, align 4
  %17 = alloca ptr, align 8
  %18 = alloca i32, align 4
  store ptr %0, ptr %10, align 8
  store i32 %1, ptr %11, align 4
  store ptr %2, ptr %12, align 8
  store ptr %3, ptr %13, align 8
  store ptr %4, ptr %14, align 8
  store ptr %5, ptr %15, align 8
  store i32 %6, ptr %16, align 4
  store ptr %7, ptr %17, align 8
  %19 = load ptr, ptr %14, align 8
  %20 = getelementptr inbounds nuw %struct._dcerpc_info, ptr %19, i32 0, i32 14
  %21 = load ptr, ptr %20, align 8
  %22 = getelementptr inbounds nuw %struct._dcerpc_call_value, ptr %21, i32 0, i32 11
  %23 = load i32, ptr %22, align 8
  %24 = and i32 %23, 1
  %25 = icmp ne i32 %24, 0
  br i1 %25, label %26, label %36

26:                                               ; preds = %8
  %27 = load ptr, ptr %10, align 8
  %28 = load i32, ptr %11, align 4
  %29 = load ptr, ptr %12, align 8
  %30 = load ptr, ptr %13, align 8
  %31 = load ptr, ptr %14, align 8
  %32 = load ptr, ptr %15, align 8
  %33 = load i32, ptr %16, align 4
  %34 = load ptr, ptr %17, align 8
  %35 = call i32 @dissect_ndr_uint64(ptr noundef %27, i32 noundef %28, ptr noundef %29, ptr noundef %30, ptr noundef %31, ptr noundef %32, i32 noundef %33, ptr noundef %34)
  store i32 %35, ptr %9, align 4
  br label %53

36:                                               ; preds = %8
  call void @llvm.lifetime.start.p0(i64 4, ptr %18) #9
  store i32 0, ptr %18, align 4
  %37 = load ptr, ptr %10, align 8
  %38 = load i32, ptr %11, align 4
  %39 = load ptr, ptr %12, align 8
  %40 = load ptr, ptr %13, align 8
  %41 = load ptr, ptr %14, align 8
  %42 = load ptr, ptr %15, align 8
  %43 = load i32, ptr %16, align 4
  %44 = call i32 @dissect_ndr_uint32(ptr noundef %37, i32 noundef %38, ptr noundef %39, ptr noundef %40, ptr noundef %41, ptr noundef %42, i32 noundef %43, ptr noundef %18)
  store i32 %44, ptr %11, align 4
  %45 = load ptr, ptr %17, align 8
  %46 = icmp ne ptr %45, null
  br i1 %46, label %47, label %51

47:                                               ; preds = %36
  %48 = load i32, ptr %18, align 4
  %49 = zext i32 %48 to i64
  %50 = load ptr, ptr %17, align 8
  store i64 %49, ptr %50, align 8
  br label %51

51:                                               ; preds = %47, %36
  %52 = load i32, ptr %11, align 4
  store i32 %52, ptr %9, align 4
  call void @llvm.lifetime.end.p0(i64 4, ptr %18) #9
  br label %53

53:                                               ; preds = %51, %26
  %54 = load i32, ptr %9, align 4
  ret i32 %54
}