; Function Attrs: null_pointer_is_valid sspstrong uwtable
define i32 @dissect_ndr_uint3264(ptr noundef %0, i32 noundef %1, ptr noundef %2, ptr noundef %3, ptr noundef %4, ptr noundef %5, i32 noundef %6, ptr noundef %7) local_unnamed_addr #0 {
  %9 = alloca i32, align 4
  %10 = getelementptr inbounds nuw i8, ptr %4, i64 64
  %11 = load ptr, ptr %10, align 8
  %12 = getelementptr inbounds nuw i8, ptr %11, i64 96
  %13 = load i32, ptr %12, align 8
  %14 = and i32 %13, 1
  %.not = icmp eq i32 %14, 0
  br i1 %.not, label %34, label %15

15:                                               ; preds = %8
  %.not.i = icmp eq ptr %7, null
  br i1 %.not.i, label %17, label %16

16:                                               ; preds = %15
  store i64 0, ptr %7, align 8
  br label %17

17:                                               ; preds = %16, %15
  %18 = getelementptr inbounds nuw i8, ptr %4, i64 25
  %19 = load i8, ptr %18, align 1, !range !6, !noundef !7
  %20 = trunc nuw i8 %19 to i1
  br i1 %20, label %dissect_ndr_uint64.exit, label %21

21:                                               ; preds = %17
  %22 = getelementptr inbounds nuw i8, ptr %4, i64 26
  %23 = load i8, ptr %22, align 2, !range !6, !noundef !7
  %24 = trunc nuw i8 %23 to i1
  br i1 %24, label %32, label %25

25:                                               ; preds = %21
  %26 = srem i32 %1, 8
  %.not24.i = icmp eq i32 %26, 0
  br i1 %.not24.i, label %32, label %27

27:                                               ; preds = %25
  %28 = sub nsw i32 8, %26
  %29 = load i32, ptr @hf_dcerpc_ndr_padding, align 4
  %30 = tail call ptr @proto_tree_add_item(ptr noundef %3, i32 noundef %29, ptr noundef %0, i32 noundef %1, i32 noundef %28, i32 noundef 0)
  %31 = add i32 %28, %1
  br label %32

32:                                               ; preds = %27, %25, %21
  %.021.i = phi i32 [ %1, %21 ], [ %31, %27 ], [ %1, %25 ]
  %33 = tail call i32 @dissect_dcerpc_uint64(ptr noundef %0, i32 noundef %.021.i, ptr noundef %2, ptr noundef %3, ptr noundef %4, ptr noundef %5, i32 noundef %6, ptr noundef %7)
  br label %dissect_ndr_uint64.exit

34:                                               ; preds = %8
  call void @llvm.lifetime.start.p0(i64 4, ptr nonnull %9) #8
  store i32 0, ptr %9, align 4
  %.not21.i = icmp eq ptr %4, null
  br i1 %.not21.i, label %.critedge.i, label %35

35:                                               ; preds = %34
  %36 = getelementptr inbounds nuw i8, ptr %4, i64 25
  %37 = load i8, ptr %36, align 1, !range !6, !noundef !7
  %38 = trunc nuw i8 %37 to i1
  br i1 %38, label %dissect_ndr_uint32.exit, label %39

39:                                               ; preds = %35
  %40 = getelementptr inbounds nuw i8, ptr %4, i64 26
  %41 = load i8, ptr %40, align 2, !range !6, !noundef !7
  %42 = trunc nuw i8 %41 to i1
  br i1 %42, label %.critedge.i, label %43

43:                                               ; preds = %39
  %44 = srem i32 %1, 4
  %.not22.i = icmp eq i32 %44, 0
  br i1 %.not22.i, label %.critedge.i, label %45

45:                                               ; preds = %43
  %reass.sub.i = add i32 %1, 4
  %46 = sub i32 %reass.sub.i, %44
  br label %.critedge.i

.critedge.i:                                      ; preds = %45, %43, %39, %34
  %.017.i = phi i32 [ %1, %39 ], [ %46, %45 ], [ %1, %43 ], [ %1, %34 ]
  %47 = call i32 @dissect_dcerpc_uint32(ptr noundef %0, i32 noundef %.017.i, ptr noundef %2, ptr noundef %3, ptr noundef %5, i32 noundef %6, ptr noundef nonnull %9)
  br label %dissect_ndr_uint32.exit

dissect_ndr_uint32.exit:                          ; preds = %35, %.critedge.i
  %.0.i22 = phi i32 [ %47, %.critedge.i ], [ %1, %35 ]
  %.not20 = icmp eq ptr %7, null
  br i1 %.not20, label %51, label %48

48:                                               ; preds = %dissect_ndr_uint32.exit
  %49 = load i32, ptr %9, align 4
  %50 = zext i32 %49 to i64
  store i64 %50, ptr %7, align 8
  br label %51

51:                                               ; preds = %48, %dissect_ndr_uint32.exit
  call void @llvm.lifetime.end.p0(i64 4, ptr nonnull %9) #8
  br label %dissect_ndr_uint64.exit

dissect_ndr_uint64.exit:                          ; preds = %32, %17, %51
  %.0 = phi i32 [ %.0.i22, %51 ], [ %33, %32 ], [ %1, %17 ]
  ret i32 %.0
}